libQt6Svg.so.6:NonQt
libQt6Svg.so.6:Qt_6
libQt6Svg.so.6:Qt_6_PRIVATE_API
libQt6Svg.so.6:_ZN10QSvgMarker11drawCommandEP8QPainterR15QSvgExtraStates@@Qt_6_PRIVATE_API
libQt6Svg.so.6:_ZN10QSvgMarker18drawMarkersForNodeEP8QSvgNodeP8QPainterR15QSvgExtraStates@@Qt_6_PRIVATE_API
libQt6Svg.so.6:_ZN10QSvgMarkerC1EP8QSvgNode6QRectFS2_7QPointF6QFlagsIN14QSvgSymbolLike19PreserveAspectRatioEENS5_8OverflowENS_11OrientationEdNS_11MarkerUnitsE@@Qt_6_PRIVATE_API
libQt6Svg.so.6:_ZN10QSvgMarkerC2EP8QSvgNode6QRectFS2_7QPointF6QFlagsIN14QSvgSymbolLike19PreserveAspectRatioEENS5_8OverflowENS_11OrientationEdNS_11MarkerUnitsE@@Qt_6_PRIVATE_API
libQt6Svg.so.6:_ZN10QSvgSwitch11drawCommandEP8QPainterR15QSvgExtraStates@@Qt_6_PRIVATE_API
libQt6Svg.so.6:_ZN10QSvgSwitch4initEv@@Qt_6_PRIVATE_API
libQt6Svg.so.6:_ZN10QSvgSwitchC1EP8QSvgNode@@Qt_6_PRIVATE_API
libQt6Svg.so.6:_ZN10QSvgSwitchC2EP8QSvgNode@@Qt_6_PRIVATE_API
libQt6Svg.so.6:_ZN10QSvgSymbol11drawCommandEP8QPainterR15QSvgExtraStates@@Qt_6_PRIVATE_API
libQt6Svg.so.6:_ZN10QSvgSymbolC1EP8QSvgNode6QRectFS2_7QPointF6QFlagsIN14QSvgSymbolLike19PreserveAspectRatioEENS5_8OverflowE@@Qt_6_PRIVATE_API
libQt6Svg.so.6:_ZN10QSvgSymbolC2EP8QSvgNode6QRectFS2_7QPointF6QFlagsIN14QSvgSymbolLike19PreserveAspectRatioEENS5_8OverflowE@@Qt_6_PRIVATE_API
libQt6Svg.so.6:_ZN11QSvgEllipse11drawCommandEP8QPainterR15QSvgExtraStates@@Qt_6_PRIVATE_API
libQt6Svg.so.6:_ZN11QSvgEllipseC1EP8QSvgNodeRK6QRectF@@Qt_6_PRIVATE_API
libQt6Svg.so.6:_ZN11QSvgEllipseC2EP8QSvgNodeRK6QRectF@@Qt_6_PRIVATE_API
libQt6Svg.so.6:_ZN11QSvgFeFloodC1EP8QSvgNode7QStringS2_RK9QSvgRectFRK6QColor@@Qt_6_PRIVATE_API
libQt6Svg.so.6:_ZN11QSvgFeFloodC2EP8QSvgNode7QStringS2_RK9QSvgRectFRK6QColor@@Qt_6_PRIVATE_API
libQt6Svg.so.6:_ZN11QSvgFeMergeC1EP8QSvgNode7QStringS2_RK9QSvgRectF@@Qt_6_PRIVATE_API
libQt6Svg.so.6:_ZN11QSvgFeMergeC2EP8QSvgNode7QStringS2_RK9QSvgRectF@@Qt_6_PRIVATE_API
libQt6Svg.so.6:_ZN11QSvgHandler10charactersE11QStringView@@Qt_6_PRIVATE_API
libQt6Svg.so.6:_ZN11QSvgHandler10endElementE11QStringView@@Qt_6_PRIVATE_API
libQt6Svg.so.6:_ZN11QSvgHandler10setInStyleEb@@Qt_6_PRIVATE_API
libQt6Svg.so.6:_ZN11QSvgHandler12resolveNodesEv@@Qt_6_PRIVATE_API
libQt6Svg.so.6:_ZN11QSvgHandler12startElementERK7QStringRK20QXmlStreamAttributes@@Qt_6_PRIVATE_API
libQt6Svg.so.6:_ZN11QSvgHandler13pushColorCopyEv@@Qt_6_PRIVATE_API
libQt6Svg.so.6:_ZN11QSvgHandler13setAnimPeriodEii@@Qt_6_PRIVATE_API
libQt6Svg.so.6:_ZN11QSvgHandler18parseCSStoXMLAttrsERK7QStringP5QListI16QSvgCssAttributeE@@Qt_6_PRIVATE_API
libQt6Svg.so.6:_ZN11QSvgHandler19resolvePaintServersEP8QSvgNodei@@Qt_6_PRIVATE_API
libQt6Svg.so.6:_ZN11QSvgHandler21processingInstructionERK7QStringS2_@@Qt_6_PRIVATE_API
libQt6Svg.so.6:_ZN11QSvgHandler26setDefaultCoordinateSystemENS_10LengthTypeE@@Qt_6_PRIVATE_API
libQt6Svg.so.6:_ZN11QSvgHandler4initEv@@Qt_6_PRIVATE_API
libQt6Svg.so.6:_ZN11QSvgHandler5parseEv@@Qt_6_PRIVATE_API
libQt6Svg.so.6:_ZN11QSvgHandler8popColorEv@@Qt_6_PRIVATE_API
libQt6Svg.so.6:_ZN11QSvgHandler9pushColorERK6QColor@@Qt_6_PRIVATE_API
libQt6Svg.so.6:_ZN11QSvgHandlerC1EP16QXmlStreamReader6QFlagsIN5QtSvg6OptionEE@@Qt_6_PRIVATE_API
libQt6Svg.so.6:_ZN11QSvgHandlerC1EP9QIODevice6QFlagsIN5QtSvg6OptionEE@@Qt_6_PRIVATE_API
libQt6Svg.so.6:_ZN11QSvgHandlerC1ERK10QByteArray6QFlagsIN5QtSvg6OptionEE@@Qt_6_PRIVATE_API
libQt6Svg.so.6:_ZN11QSvgHandlerC2EP16QXmlStreamReader6QFlagsIN5QtSvg6OptionEE@@Qt_6_PRIVATE_API
libQt6Svg.so.6:_ZN11QSvgHandlerC2EP9QIODevice6QFlagsIN5QtSvg6OptionEE@@Qt_6_PRIVATE_API
libQt6Svg.so.6:_ZN11QSvgHandlerC2ERK10QByteArray6QFlagsIN5QtSvg6OptionEE@@Qt_6_PRIVATE_API
libQt6Svg.so.6:_ZN11QSvgHandlerD1Ev@@Qt_6_PRIVATE_API
libQt6Svg.so.6:_ZN11QSvgHandlerD2Ev@@Qt_6_PRIVATE_API
libQt6Svg.so.6:_ZN11QSvgPattern12patternImageEP8QPainterR15QSvgExtraStatesPK8QSvgNode@@Qt_6_PRIVATE_API
libQt6Svg.so.6:_ZN11QSvgPattern13renderPatternE5QSizedd@@Qt_6_PRIVATE_API
libQt6Svg.so.6:_ZN11QSvgPattern25calculateAppliedTransformER10QTransform6QRectF5QSize@@Qt_6_PRIVATE_API
libQt6Svg.so.6:_ZN11QSvgPatternC1EP8QSvgNode9QSvgRectF6QRectFN5QtSvg9UnitTypesE10QTransform@@Qt_6_PRIVATE_API
libQt6Svg.so.6:_ZN11QSvgPatternC2EP8QSvgNode9QSvgRectF6QRectFN5QtSvg9UnitTypesE10QTransform@@Qt_6_PRIVATE_API
libQt6Svg.so.6:_ZN11QSvgPolygon11drawCommandEP8QPainterR15QSvgExtraStates@@Qt_6_PRIVATE_API
libQt6Svg.so.6:_ZN11QSvgPolygonC1EP8QSvgNodeRK9QPolygonF@@Qt_6_PRIVATE_API
libQt6Svg.so.6:_ZN11QSvgPolygonC2EP8QSvgNodeRK9QPolygonF@@Qt_6_PRIVATE_API
libQt6Svg.so.6:_ZN11QSvgVisitor8traverseEPK17QSvgStructureNode@@Qt_6_PRIVATE_API
libQt6Svg.so.6:_ZN12QSvgFeOffsetC1EP8QSvgNode7QStringS2_RK9QSvgRectFdd@@Qt_6_PRIVATE_API
libQt6Svg.so.6:_ZN12QSvgFeOffsetC2EP8QSvgNode7QStringS2_RK9QSvgRectFdd@@Qt_6_PRIVATE_API
libQt6Svg.so.6:_ZN12QSvgPolyline11drawCommandEP8QPainterR15QSvgExtraStates@@Qt_6_PRIVATE_API
libQt6Svg.so.6:_ZN12QSvgPolylineC1EP8QSvgNodeRK9QPolygonF@@Qt_6_PRIVATE_API
libQt6Svg.so.6:_ZN12QSvgPolylineC2EP8QSvgNodeRK9QPolygonF@@Qt_6_PRIVATE_API
libQt6Svg.so.6:_ZN12QSvgRenderer10setOptionsE6QFlagsIN5QtSvg6OptionEE@@Qt_6
libQt6Svg.so.6:_ZN12QSvgRenderer10setViewBoxERK5QRect@@Qt_6
libQt6Svg.so.6:_ZN12QSvgRenderer10setViewBoxERK6QRectF@@Qt_6
libQt6Svg.so.6:_ZN12QSvgRenderer11qt_metacallEN11QMetaObject4CallEiPPv@@Qt_6
libQt6Svg.so.6:_ZN12QSvgRenderer11qt_metacastEPKc@@Qt_6
libQt6Svg.so.6:_ZN12QSvgRenderer13repaintNeededEv@@Qt_6
libQt6Svg.so.6:_ZN12QSvgRenderer15setCurrentFrameEi@@Qt_6
libQt6Svg.so.6:_ZN12QSvgRenderer18setAspectRatioModeEN2Qt15AspectRatioModeE@@Qt_6
libQt6Svg.so.6:_ZN12QSvgRenderer18setFramesPerSecondEi@@Qt_6
libQt6Svg.so.6:_ZN12QSvgRenderer19setAnimationEnabledEb@@Qt_6
libQt6Svg.so.6:_ZN12QSvgRenderer4loadEP16QXmlStreamReader@@Qt_6
libQt6Svg.so.6:_ZN12QSvgRenderer4loadERK10QByteArray@@Qt_6
libQt6Svg.so.6:_ZN12QSvgRenderer4loadERK7QString@@Qt_6
libQt6Svg.so.6:_ZN12QSvgRenderer6renderEP8QPainter@@Qt_6
libQt6Svg.so.6:_ZN12QSvgRenderer6renderEP8QPainterRK6QRectF@@Qt_6
libQt6Svg.so.6:_ZN12QSvgRenderer6renderEP8QPainterRK7QStringRK6QRectF@@Qt_6
libQt6Svg.so.6:_ZN12QSvgRendererC1EP16QXmlStreamReaderP7QObject@@Qt_6
libQt6Svg.so.6:_ZN12QSvgRendererC1EP7QObject@@Qt_6
libQt6Svg.so.6:_ZN12QSvgRendererC1ERK10QByteArrayP7QObject@@Qt_6
libQt6Svg.so.6:_ZN12QSvgRendererC1ERK7QStringP7QObject@@Qt_6
libQt6Svg.so.6:_ZN12QSvgRendererC2EP16QXmlStreamReaderP7QObject@@Qt_6
libQt6Svg.so.6:_ZN12QSvgRendererC2EP7QObject@@Qt_6
libQt6Svg.so.6:_ZN12QSvgRendererC2ERK10QByteArrayP7QObject@@Qt_6
libQt6Svg.so.6:_ZN12QSvgRendererC2ERK7QStringP7QObject@@Qt_6
libQt6Svg.so.6:_ZN12QSvgRendererD0Ev@@Qt_6
libQt6Svg.so.6:_ZN12QSvgRendererD1Ev@@Qt_6
libQt6Svg.so.6:_ZN12QSvgRendererD2Ev@@Qt_6
libQt6Svg.so.6:_ZN13QSvgAnimation11drawCommandEP8QPainterR15QSvgExtraStates@@Qt_6_PRIVATE_API
libQt6Svg.so.6:_ZN13QSvgFillStyle11setFillRuleEN2Qt8FillRuleE@@Qt_6_PRIVATE_API
libQt6Svg.so.6:_ZN13QSvgFillStyle12setFillStyleEP22QSvgPaintStyleProperty@@Qt_6_PRIVATE_API
libQt6Svg.so.6:_ZN13QSvgFillStyle14setFillOpacityEd@@Qt_6_PRIVATE_API
libQt6Svg.so.6:_ZN13QSvgFillStyle5applyEP8QPainterPK8QSvgNodeR15QSvgExtraStates@@Qt_6_PRIVATE_API
libQt6Svg.so.6:_ZN13QSvgFillStyle6revertEP8QPainterR15QSvgExtraStates@@Qt_6_PRIVATE_API
libQt6Svg.so.6:_ZN13QSvgFillStyle8setBrushE6QBrush@@Qt_6_PRIVATE_API
libQt6Svg.so.6:_ZN13QSvgFillStyleC1Ev@@Qt_6_PRIVATE_API
libQt6Svg.so.6:_ZN13QSvgFillStyleC2Ev@@Qt_6_PRIVATE_API
libQt6Svg.so.6:_ZN13QSvgFontStyle5applyEP8QPainterPK8QSvgNodeR15QSvgExtraStates@@Qt_6_PRIVATE_API
libQt6Svg.so.6:_ZN13QSvgFontStyle6revertEP8QPainterR15QSvgExtraStates@@Qt_6_PRIVATE_API
libQt6Svg.so.6:_ZN13QSvgFontStyleC1EP8QSvgFontP16QSvgTinyDocument@@Qt_6_PRIVATE_API
libQt6Svg.so.6:_ZN13QSvgFontStyleC1Ev@@Qt_6_PRIVATE_API
libQt6Svg.so.6:_ZN13QSvgFontStyleC2EP8QSvgFontP16QSvgTinyDocument@@Qt_6_PRIVATE_API
libQt6Svg.so.6:_ZN13QSvgFontStyleC2Ev@@Qt_6_PRIVATE_API
libQt6Svg.so.6:_ZN13QSvgGenerator10setViewBoxERK5QRect@@Qt_6
libQt6Svg.so.6:_ZN13QSvgGenerator10setViewBoxERK6QRectF@@Qt_6
libQt6Svg.so.6:_ZN13QSvgGenerator11setFileNameERK7QString@@Qt_6
libQt6Svg.so.6:_ZN13QSvgGenerator13setResolutionEi@@Qt_6
libQt6Svg.so.6:_ZN13QSvgGenerator14setDescriptionERK7QString@@Qt_6
libQt6Svg.so.6:_ZN13QSvgGenerator15setOutputDeviceEP9QIODevice@@Qt_6
libQt6Svg.so.6:_ZN13QSvgGenerator7setSizeERK5QSize@@Qt_6
libQt6Svg.so.6:_ZN13QSvgGenerator8setTitleERK7QString@@Qt_6
libQt6Svg.so.6:_ZN13QSvgGeneratorC1ENS_10SvgVersionE@@Qt_6
libQt6Svg.so.6:_ZN13QSvgGeneratorC1Ev@@Qt_6
libQt6Svg.so.6:_ZN13QSvgGeneratorC2ENS_10SvgVersionE@@Qt_6
libQt6Svg.so.6:_ZN13QSvgGeneratorC2Ev@@Qt_6
libQt6Svg.so.6:_ZN13QSvgGeneratorD0Ev@@Qt_6
libQt6Svg.so.6:_ZN13QSvgGeneratorD1Ev@@Qt_6
libQt6Svg.so.6:_ZN13QSvgGeneratorD2Ev@@Qt_6
libQt6Svg.so.6:_ZN14QSvgSymbolLikeC1EP8QSvgNode6QRectFS2_7QPointF6QFlagsINS_19PreserveAspectRatioEENS_8OverflowE@@Qt_6_PRIVATE_API
libQt6Svg.so.6:_ZN14QSvgSymbolLikeC2EP8QSvgNode6QRectFS2_7QPointF6QFlagsINS_19PreserveAspectRatioEENS_8OverflowE@@Qt_6_PRIVATE_API
libQt6Svg.so.6:_ZN15QSvgCompOpStyle5applyEP8QPainterPK8QSvgNodeR15QSvgExtraStates@@Qt_6_PRIVATE_API
libQt6Svg.so.6:_ZN15QSvgCompOpStyle6revertEP8QPainterR15QSvgExtraStates@@Qt_6_PRIVATE_API
libQt6Svg.so.6:_ZN15QSvgCompOpStyleC1EN8QPainter15CompositionModeE@@Qt_6_PRIVATE_API
libQt6Svg.so.6:_ZN15QSvgCompOpStyleC2EN8QPainter15CompositionModeE@@Qt_6_PRIVATE_API
libQt6Svg.so.6:_ZN15QSvgExtraStatesC1Ev@@Qt_6_PRIVATE_API
libQt6Svg.so.6:_ZN15QSvgExtraStatesC2Ev@@Qt_6_PRIVATE_API
libQt6Svg.so.6:_ZN15QSvgFeCompositeC1EP8QSvgNode7QStringS2_RK9QSvgRectFS2_NS_8OperatorE9QVector4D@@Qt_6_PRIVATE_API
libQt6Svg.so.6:_ZN15QSvgFeCompositeC2EP8QSvgNode7QStringS2_RK9QSvgRectFS2_NS_8OperatorE9QVector4D@@Qt_6_PRIVATE_API
libQt6Svg.so.6:_ZN15QSvgFeMergeNodeC1EP8QSvgNode7QStringS2_RK9QSvgRectF@@Qt_6_PRIVATE_API
libQt6Svg.so.6:_ZN15QSvgFeMergeNodeC2EP8QSvgNode7QStringS2_RK9QSvgRectF@@Qt_6_PRIVATE_API
libQt6Svg.so.6:_ZN15QSvgStrokeStyle12setDashArrayERK5QListIdE@@Qt_6_PRIVATE_API
libQt6Svg.so.6:_ZN15QSvgStrokeStyle5applyEP8QPainterPK8QSvgNodeR15QSvgExtraStates@@Qt_6_PRIVATE_API
libQt6Svg.so.6:_ZN15QSvgStrokeStyle6revertEP8QPainterR15QSvgExtraStates@@Qt_6_PRIVATE_API
libQt6Svg.so.6:_ZN15QSvgStrokeStyleC1Ev@@Qt_6_PRIVATE_API
libQt6Svg.so.6:_ZN15QSvgStrokeStyleC2Ev@@Qt_6_PRIVATE_API
libQt6Svg.so.6:_ZN16QSvgAnimateColor14setRepeatCountEd@@Qt_6_PRIVATE_API
libQt6Svg.so.6:_ZN16QSvgAnimateColor5applyEP8QPainterPK8QSvgNodeR15QSvgExtraStates@@Qt_6_PRIVATE_API
libQt6Svg.so.6:_ZN16QSvgAnimateColor6revertEP8QPainterR15QSvgExtraStates@@Qt_6_PRIVATE_API
libQt6Svg.so.6:_ZN16QSvgAnimateColor7setArgsEbRK5QListI6QColorE@@Qt_6_PRIVATE_API
libQt6Svg.so.6:_ZN16QSvgAnimateColor9setFreezeEb@@Qt_6_PRIVATE_API
libQt6Svg.so.6:_ZN16QSvgAnimateColorC1Eiii@@Qt_6_PRIVATE_API
libQt6Svg.so.6:_ZN16QSvgAnimateColorC2Eiii@@Qt_6_PRIVATE_API
libQt6Svg.so.6:_ZN16QSvgOpacityStyle5applyEP8QPainterPK8QSvgNodeR15QSvgExtraStates@@Qt_6_PRIVATE_API
libQt6Svg.so.6:_ZN16QSvgOpacityStyle6revertEP8QPainterR15QSvgExtraStates@@Qt_6_PRIVATE_API
libQt6Svg.so.6:_ZN16QSvgOpacityStyleC1Ed@@Qt_6_PRIVATE_API
libQt6Svg.so.6:_ZN16QSvgOpacityStyleC2Ed@@Qt_6_PRIVATE_API
libQt6Svg.so.6:_ZN16QSvgPatternStyle5brushEP8QPainterPK8QSvgNodeR15QSvgExtraStates@@Qt_6_PRIVATE_API
libQt6Svg.so.6:_ZN16QSvgPatternStyleC1EP11QSvgPattern@@Qt_6_PRIVATE_API
libQt6Svg.so.6:_ZN16QSvgPatternStyleC2EP11QSvgPattern@@Qt_6_PRIVATE_API
libQt6Svg.so.6:_ZN16QSvgQualityStyle17setImageRenderingENS_14ImageRenderingE@@Qt_6_PRIVATE_API
libQt6Svg.so.6:_ZN16QSvgQualityStyle5applyEP8QPainterPK8QSvgNodeR15QSvgExtraStates@@Qt_6_PRIVATE_API
libQt6Svg.so.6:_ZN16QSvgQualityStyle6revertEP8QPainterR15QSvgExtraStates@@Qt_6_PRIVATE_API
libQt6Svg.so.6:_ZN16QSvgQualityStyleC1Ei@@Qt_6_PRIVATE_API
libQt6Svg.so.6:_ZN16QSvgQualityStyleC2Ei@@Qt_6_PRIVATE_API
libQt6Svg.so.6:_ZN16QSvgTinyDocument10addSvgFontEP8QSvgFont@@Qt_6_PRIVATE_API
libQt6Svg.so.6:_ZN16QSvgTinyDocument10setViewBoxERK6QRectF@@Qt_6_PRIVATE_API
libQt6Svg.so.6:_ZN16QSvgTinyDocument11drawCommandEP8QPainterR15QSvgExtraStates@@Qt_6_PRIVATE_API
libQt6Svg.so.6:_ZN16QSvgTinyDocument11setAnimatedEb@@Qt_6_PRIVATE_API
libQt6Svg.so.6:_ZN16QSvgTinyDocument12addNamedNodeERK7QStringP8QSvgNode@@Qt_6_PRIVATE_API
libQt6Svg.so.6:_ZN16QSvgTinyDocument13addNamedStyleERK7QStringP22QSvgPaintStyleProperty@@Qt_6_PRIVATE_API
libQt6Svg.so.6:_ZN16QSvgTinyDocument15setCurrentFrameEi@@Qt_6_PRIVATE_API
libQt6Svg.so.6:_ZN16QSvgTinyDocument16restartAnimationEv@@Qt_6_PRIVATE_API
libQt6Svg.so.6:_ZN16QSvgTinyDocument17mapSourceToTargetEP8QPainterRK6QRectFS4_@@Qt_6_PRIVATE_API
libQt6Svg.so.6:_ZN16QSvgTinyDocument18setFramesPerSecondEi@@Qt_6_PRIVATE_API
libQt6Svg.so.6:_ZN16QSvgTinyDocument22setPreserveAspectRatioEb@@Qt_6_PRIVATE_API
libQt6Svg.so.6:_ZN16QSvgTinyDocument4drawEP8QPainter@@Qt_6_PRIVATE_API
libQt6Svg.so.6:_ZN16QSvgTinyDocument4drawEP8QPainterRK6QRectF@@Qt_6_PRIVATE_API
libQt6Svg.so.6:_ZN16QSvgTinyDocument4drawEP8QPainterRK7QStringRK6QRectF@@Qt_6_PRIVATE_API
libQt6Svg.so.6:_ZN16QSvgTinyDocument4loadEP16QXmlStreamReader6QFlagsIN5QtSvg6OptionEE@@Qt_6_PRIVATE_API
libQt6Svg.so.6:_ZN16QSvgTinyDocument4loadERK10QByteArray6QFlagsIN5QtSvg6OptionEE@@Qt_6_PRIVATE_API
libQt6Svg.so.6:_ZN16QSvgTinyDocument4loadERK7QString6QFlagsIN5QtSvg6OptionEE@@Qt_6_PRIVATE_API
libQt6Svg.so.6:_ZN16QSvgTinyDocument8setWidthEib@@Qt_6_PRIVATE_API
libQt6Svg.so.6:_ZN16QSvgTinyDocument9setHeightEib@@Qt_6_PRIVATE_API
libQt6Svg.so.6:_ZN16QSvgTinyDocumentC1E6QFlagsIN5QtSvg6OptionEE@@Qt_6_PRIVATE_API
libQt6Svg.so.6:_ZN16QSvgTinyDocumentC2E6QFlagsIN5QtSvg6OptionEE@@Qt_6_PRIVATE_API
libQt6Svg.so.6:_ZN16QSvgTinyDocumentD0Ev@@Qt_6_PRIVATE_API
libQt6Svg.so.6:_ZN16QSvgTinyDocumentD1Ev@@Qt_6_PRIVATE_API
libQt6Svg.so.6:_ZN16QSvgTinyDocumentD2Ev@@Qt_6_PRIVATE_API
libQt6Svg.so.6:_ZN17QSvgFeColorMatrixC1EP8QSvgNode7QStringS2_RK9QSvgRectFNS_14ColorShiftTypeE14QGenericMatrixILi5ELi5EdE@@Qt_6_PRIVATE_API
libQt6Svg.so.6:_ZN17QSvgFeColorMatrixC2EP8QSvgNode7QStringS2_RK9QSvgRectFNS_14ColorShiftTypeE14QGenericMatrixILi5ELi5EdE@@Qt_6_PRIVATE_API
libQt6Svg.so.6:_ZN17QSvgFeUnsupportedC1EP8QSvgNode7QStringS2_RK9QSvgRectF@@Qt_6_PRIVATE_API
libQt6Svg.so.6:_ZN17QSvgFeUnsupportedC2EP8QSvgNode7QStringS2_RK9QSvgRectF@@Qt_6_PRIVATE_API
libQt6Svg.so.6:_ZN17QSvgGradientStyle11setStopLinkERK7QStringP16QSvgTinyDocument@@Qt_6_PRIVATE_API
libQt6Svg.so.6:_ZN17QSvgGradientStyle12resolveStopsEv@@Qt_6_PRIVATE_API
libQt6Svg.so.6:_ZN17QSvgGradientStyle12setTransformERK10QTransform@@Qt_6_PRIVATE_API
libQt6Svg.so.6:_ZN17QSvgGradientStyle19resolveStops_helperEP5QListI7QStringE@@Qt_6_PRIVATE_API
libQt6Svg.so.6:_ZN17QSvgGradientStyle5brushEP8QPainterPK8QSvgNodeR15QSvgExtraStates@@Qt_6_PRIVATE_API
libQt6Svg.so.6:_ZN17QSvgGradientStyleC1EP9QGradient@@Qt_6_PRIVATE_API
libQt6Svg.so.6:_ZN17QSvgGradientStyleC2EP9QGradient@@Qt_6_PRIVATE_API
libQt6Svg.so.6:_ZN17QSvgStructureNode8addChildEP8QSvgNodeRK7QString@@Qt_6_PRIVATE_API
libQt6Svg.so.6:_ZN17QSvgStructureNodeC1EP8QSvgNode@@Qt_6_PRIVATE_API
libQt6Svg.so.6:_ZN17QSvgStructureNodeC2EP8QSvgNode@@Qt_6_PRIVATE_API
libQt6Svg.so.6:_ZN17QSvgStructureNodeD0Ev@@Qt_6_PRIVATE_API
libQt6Svg.so.6:_ZN17QSvgStructureNodeD1Ev@@Qt_6_PRIVATE_API
libQt6Svg.so.6:_ZN17QSvgStructureNodeD2Ev@@Qt_6_PRIVATE_API
libQt6Svg.so.6:_ZN17QSvgStylePropertyD0Ev@@Qt_6_PRIVATE_API
libQt6Svg.so.6:_ZN17QSvgStylePropertyD1Ev@@Qt_6_PRIVATE_API
libQt6Svg.so.6:_ZN17QSvgStylePropertyD2Ev@@Qt_6_PRIVATE_API
libQt6Svg.so.6:_ZN18QSvgFeGaussianBlurC1EP8QSvgNode7QStringS2_RK9QSvgRectFddNS_8EdgeModeE@@Qt_6_PRIVATE_API
libQt6Svg.so.6:_ZN18QSvgFeGaussianBlurC2EP8QSvgNode7QStringS2_RK9QSvgRectFddNS_8EdgeModeE@@Qt_6_PRIVATE_API
libQt6Svg.so.6:_ZN18QSvgTransformStyle5applyEP8QPainterPK8QSvgNodeR15QSvgExtraStates@@Qt_6_PRIVATE_API
libQt6Svg.so.6:_ZN18QSvgTransformStyle6revertEP8QPainterR15QSvgExtraStates@@Qt_6_PRIVATE_API
libQt6Svg.so.6:_ZN18QSvgTransformStyleC1ERK10QTransform@@Qt_6_PRIVATE_API
libQt6Svg.so.6:_ZN18QSvgTransformStyleC2ERK10QTransform@@Qt_6_PRIVATE_API
libQt6Svg.so.6:_ZN19QSvgFilterContainer12setSupportedEb@@Qt_6_PRIVATE_API
libQt6Svg.so.6:_ZN19QSvgFilterContainerC1EP8QSvgNodeRK9QSvgRectFN5QtSvg9UnitTypesES6_@@Qt_6_PRIVATE_API
libQt6Svg.so.6:_ZN19QSvgFilterContainerC2EP8QSvgNodeRK9QSvgRectFN5QtSvg9UnitTypesES6_@@Qt_6_PRIVATE_API
libQt6Svg.so.6:_ZN19QSvgSolidColorStyleC1ERK6QColor@@Qt_6_PRIVATE_API
libQt6Svg.so.6:_ZN19QSvgSolidColorStyleC2ERK6QColor@@Qt_6_PRIVATE_API
libQt6Svg.so.6:_ZN20QSvgAnimateTransform13resolveMatrixEPK8QSvgNode@@Qt_6_PRIVATE_API
libQt6Svg.so.6:_ZN20QSvgAnimateTransform14setRepeatCountEd@@Qt_6_PRIVATE_API
libQt6Svg.so.6:_ZN20QSvgAnimateTransform5applyEP8QPainterPK8QSvgNodeR15QSvgExtraStates@@Qt_6_PRIVATE_API
libQt6Svg.so.6:_ZN20QSvgAnimateTransform6revertEP8QPainterR15QSvgExtraStates@@Qt_6_PRIVATE_API
libQt6Svg.so.6:_ZN20QSvgAnimateTransform7setArgsENS_13TransformTypeENS_8AdditiveERK5QListIdE@@Qt_6_PRIVATE_API
libQt6Svg.so.6:_ZN20QSvgAnimateTransform9setFreezeEb@@Qt_6_PRIVATE_API
libQt6Svg.so.6:_ZN20QSvgAnimateTransformC1Eiii@@Qt_6_PRIVATE_API
libQt6Svg.so.6:_ZN20QSvgAnimateTransformC2Eiii@@Qt_6_PRIVATE_API
libQt6Svg.so.6:_ZN21QSvgFeFilterPrimitive21castToFilterPrimitiveEPK8QSvgNode@@Qt_6_PRIVATE_API
libQt6Svg.so.6:_ZN21QSvgFeFilterPrimitiveC1EP8QSvgNode7QStringS2_RK9QSvgRectF@@Qt_6_PRIVATE_API
libQt6Svg.so.6:_ZN21QSvgFeFilterPrimitiveC2EP8QSvgNode7QStringS2_RK9QSvgRectF@@Qt_6_PRIVATE_API
libQt6Svg.so.6:_ZN21QSvgViewportFillStyle5applyEP8QPainterPK8QSvgNodeR15QSvgExtraStates@@Qt_6_PRIVATE_API
libQt6Svg.so.6:_ZN21QSvgViewportFillStyle6revertEP8QPainterR15QSvgExtraStates@@Qt_6_PRIVATE_API
libQt6Svg.so.6:_ZN21QSvgViewportFillStyleC1ERK6QBrush@@Qt_6_PRIVATE_API
libQt6Svg.so.6:_ZN21QSvgViewportFillStyleC2ERK6QBrush@@Qt_6_PRIVATE_API
libQt6Svg.so.6:_ZN22QSvgPaintStyleProperty5applyEP8QPainterPK8QSvgNodeR15QSvgExtraStates@@Qt_6_PRIVATE_API
libQt6Svg.so.6:_ZN22QSvgPaintStyleProperty6revertEP8QPainterR15QSvgExtraStates@@Qt_6_PRIVATE_API
libQt6Svg.so.6:_ZN5QSvgG11drawCommandEP8QPainterR15QSvgExtraStates@@Qt_6_PRIVATE_API
libQt6Svg.so.6:_ZN5QSvgGC1EP8QSvgNode@@Qt_6_PRIVATE_API
libQt6Svg.so.6:_ZN5QSvgGC2EP8QSvgNode@@Qt_6_PRIVATE_API
libQt6Svg.so.6:_ZN8QSvgDefsC1EP8QSvgNode@@Qt_6_PRIVATE_API
libQt6Svg.so.6:_ZN8QSvgDefsC2EP8QSvgNode@@Qt_6_PRIVATE_API
libQt6Svg.so.6:_ZN8QSvgFont13setFamilyNameERK7QString@@Qt_6_PRIVATE_API
libQt6Svg.so.6:_ZN8QSvgFont13setUnitsPerEmEd@@Qt_6_PRIVATE_API
libQt6Svg.so.6:_ZN8QSvgFont8addGlyphE5QCharRK12QPainterPathd@@Qt_6_PRIVATE_API
libQt6Svg.so.6:_ZN8QSvgFontC1Ed@@Qt_6_PRIVATE_API
libQt6Svg.so.6:_ZN8QSvgFontC2Ed@@Qt_6_PRIVATE_API
libQt6Svg.so.6:_ZN8QSvgLine11drawCommandEP8QPainterR15QSvgExtraStates@@Qt_6_PRIVATE_API
libQt6Svg.so.6:_ZN8QSvgLineC1EP8QSvgNodeRK6QLineF@@Qt_6_PRIVATE_API
libQt6Svg.so.6:_ZN8QSvgLineC2EP8QSvgNodeRK6QLineF@@Qt_6_PRIVATE_API
libQt6Svg.so.6:_ZN8QSvgMaskC1EP8QSvgNode9QSvgRectFN5QtSvg9UnitTypesE@@Qt_6_PRIVATE_API
libQt6Svg.so.6:_ZN8QSvgMaskC2EP8QSvgNode9QSvgRectFN5QtSvg9UnitTypesE@@Qt_6_PRIVATE_API
libQt6Svg.so.6:_ZN8QSvgNode10setVisibleEb@@Qt_6_PRIVATE_API
libQt6Svg.so.6:_ZN8QSvgNode11initPainterEP8QPainter@@Qt_6_PRIVATE_API
libQt6Svg.so.6:_ZN8QSvgNode11setFilterIdERK7QString@@Qt_6_PRIVATE_API
libQt6Svg.so.6:_ZN8QSvgNode11setXmlClassERK7QString@@Qt_6_PRIVATE_API
libQt6Svg.so.6:_ZN8QSvgNode11strokeWidthEP8QPainter@@Qt_6_PRIVATE_API
libQt6Svg.so.6:_ZN8QSvgNode12drawWithMaskEP8QPainterR15QSvgExtraStatesRK6QImageRK5QRect@@Qt_6_PRIVATE_API
libQt6Svg.so.6:_ZN8QSvgNode14drawIntoBufferEP8QPainterR15QSvgExtraStatesRK5QRect@@Qt_6_PRIVATE_API
libQt6Svg.so.6:_ZN8QSvgNode14fillThenStrokeEP8QPainterR15QSvgExtraStates@@Qt_6_PRIVATE_API
libQt6Svg.so.6:_ZN8QSvgNode14setDisplayModeENS_11DisplayModeE@@Qt_6_PRIVATE_API
libQt6Svg.so.6:_ZN8QSvgNode14setMarkerEndIdERK7QString@@Qt_6_PRIVATE_API
libQt6Svg.so.6:_ZN8QSvgNode14setMarkerMidIdERK7QString@@Qt_6_PRIVATE_API
libQt6Svg.so.6:_ZN8QSvgNode16setMarkerStartIdERK7QString@@Qt_6_PRIVATE_API
libQt6Svg.so.6:_ZN8QSvgNode16setRequiredFontsERK5QListI7QStringE@@Qt_6_PRIVATE_API
libQt6Svg.so.6:_ZN8QSvgNode18setRequiredFormatsERK5QListI7QStringE@@Qt_6_PRIVATE_API
libQt6Svg.so.6:_ZN8QSvgNode19appendStylePropertyEP17QSvgStylePropertyRK7QString@@Qt_6_PRIVATE_API
libQt6Svg.so.6:_ZN8QSvgNode19setRequiredFeaturesERK5QListI7QStringE@@Qt_6_PRIVATE_API
libQt6Svg.so.6:_ZN8QSvgNode20setRequiredLanguagesERK5QListI7QStringE@@Qt_6_PRIVATE_API
libQt6Svg.so.6:_ZN8QSvgNode21setRequiredExtensionsERK5QListI7QStringE@@Qt_6_PRIVATE_API
libQt6Svg.so.6:_ZN8QSvgNode4drawEP8QPainterR15QSvgExtraStates@@Qt_6_PRIVATE_API
libQt6Svg.so.6:_ZN8QSvgNode9setMaskIdERK7QString@@Qt_6_PRIVATE_API
libQt6Svg.so.6:_ZN8QSvgNode9setNodeIdERK7QString@@Qt_6_PRIVATE_API
libQt6Svg.so.6:_ZN8QSvgNodeC1EPS_@@Qt_6_PRIVATE_API
libQt6Svg.so.6:_ZN8QSvgNodeC2EPS_@@Qt_6_PRIVATE_API
libQt6Svg.so.6:_ZN8QSvgNodeD0Ev@@Qt_6_PRIVATE_API
libQt6Svg.so.6:_ZN8QSvgNodeD1Ev@@Qt_6_PRIVATE_API
libQt6Svg.so.6:_ZN8QSvgNodeD2Ev@@Qt_6_PRIVATE_API
libQt6Svg.so.6:_ZN8QSvgPath11drawCommandEP8QPainterR15QSvgExtraStates@@Qt_6_PRIVATE_API
libQt6Svg.so.6:_ZN8QSvgPathC1EP8QSvgNodeRK12QPainterPath@@Qt_6_PRIVATE_API
libQt6Svg.so.6:_ZN8QSvgPathC2EP8QSvgNodeRK12QPainterPath@@Qt_6_PRIVATE_API
libQt6Svg.so.6:_ZN8QSvgRect11drawCommandEP8QPainterR15QSvgExtraStates@@Qt_6_PRIVATE_API
libQt6Svg.so.6:_ZN8QSvgRectC1EP8QSvgNodeRK6QRectFdd@@Qt_6_PRIVATE_API
libQt6Svg.so.6:_ZN8QSvgRectC2EP8QSvgNodeRK6QRectFdd@@Qt_6_PRIVATE_API
libQt6Svg.so.6:_ZN8QSvgText11drawCommandEP8QPainterR15QSvgExtraStates@@Qt_6_PRIVATE_API
libQt6Svg.so.6:_ZN8QSvgText11setTextAreaERK6QSizeF@@Qt_6_PRIVATE_API
libQt6Svg.so.6:_ZN8QSvgText7addTextERK7QString@@Qt_6_PRIVATE_API
libQt6Svg.so.6:_ZN8QSvgTextC1EP8QSvgNodeRK7QPointF@@Qt_6_PRIVATE_API
libQt6Svg.so.6:_ZN8QSvgTextC2EP8QSvgNodeRK7QPointF@@Qt_6_PRIVATE_API
libQt6Svg.so.6:_ZN8QSvgTextD0Ev@@Qt_6_PRIVATE_API
libQt6Svg.so.6:_ZN8QSvgTextD1Ev@@Qt_6_PRIVATE_API
libQt6Svg.so.6:_ZN8QSvgTextD2Ev@@Qt_6_PRIVATE_API
libQt6Svg.so.6:_ZN9QSvgGlyphC1E5QCharRK12QPainterPathd@@Qt_6_PRIVATE_API
libQt6Svg.so.6:_ZN9QSvgGlyphC2E5QCharRK12QPainterPathd@@Qt_6_PRIVATE_API
libQt6Svg.so.6:_ZN9QSvgImage11drawCommandEP8QPainterR15QSvgExtraStates@@Qt_6_PRIVATE_API
libQt6Svg.so.6:_ZN9QSvgImageC1EP8QSvgNodeRK6QImageRK6QRectF@@Qt_6_PRIVATE_API
libQt6Svg.so.6:_ZN9QSvgImageC2EP8QSvgNodeRK6QImageRK6QRectF@@Qt_6_PRIVATE_API
libQt6Svg.so.6:_ZN9QSvgStyle5applyEP8QPainterPK8QSvgNodeR15QSvgExtraStates@@Qt_6_PRIVATE_API
libQt6Svg.so.6:_ZN9QSvgStyle6revertEP8QPainterR15QSvgExtraStates@@Qt_6_PRIVATE_API
libQt6Svg.so.6:_ZN9QSvgStyleD1Ev@@Qt_6_PRIVATE_API
libQt6Svg.so.6:_ZN9QSvgStyleD2Ev@@Qt_6_PRIVATE_API
libQt6Svg.so.6:_ZNK10QSvgCircle4typeEv@@Qt_6_PRIVATE_API
libQt6Svg.so.6:_ZNK10QSvgMarker4typeEv@@Qt_6_PRIVATE_API
libQt6Svg.so.6:_ZNK10QSvgSwitch4typeEv@@Qt_6_PRIVATE_API
libQt6Svg.so.6:_ZNK10QSvgSymbol4typeEv@@Qt_6_PRIVATE_API
libQt6Svg.so.6:_ZNK11QSvgEllipse10fastBoundsEP8QPainterR15QSvgExtraStates@@Qt_6_PRIVATE_API
libQt6Svg.so.6:_ZNK11QSvgEllipse18separateFillStrokeEv@@Qt_6_PRIVATE_API
libQt6Svg.so.6:_ZNK11QSvgEllipse4typeEv@@Qt_6_PRIVATE_API
libQt6Svg.so.6:_ZNK11QSvgEllipse6boundsEP8QPainterR15QSvgExtraStates@@Qt_6_PRIVATE_API
libQt6Svg.so.6:_ZNK11QSvgFeFlood4typeEv@@Qt_6_PRIVATE_API
libQt6Svg.so.6:_ZNK11QSvgFeFlood5applyEP8QSvgNodeRK4QMapI7QString6QImageEP8QPainterRK6QRectFSC_N5QtSvg9UnitTypesESE_@@Qt_6_PRIVATE_API
libQt6Svg.so.6:_ZNK11QSvgFeMerge19requiresSourceAlphaEv@@Qt_6_PRIVATE_API
libQt6Svg.so.6:_ZNK11QSvgFeMerge4typeEv@@Qt_6_PRIVATE_API
libQt6Svg.so.6:_ZNK11QSvgFeMerge5applyEP8QSvgNodeRK4QMapI7QString6QImageEP8QPainterRK6QRectFSC_N5QtSvg9UnitTypesESE_@@Qt_6_PRIVATE_API
libQt6Svg.so.6:_ZNK11QSvgHandler12currentColorEv@@Qt_6_PRIVATE_API
libQt6Svg.so.6:_ZNK11QSvgHandler17animationDurationEv@@Qt_6_PRIVATE_API
libQt6Svg.so.6:_ZNK11QSvgHandler17trustedSourceModeEv@@Qt_6_PRIVATE_API
libQt6Svg.so.6:_ZNK11QSvgHandler23defaultCoordinateSystemEv@@Qt_6_PRIVATE_API
libQt6Svg.so.6:_ZNK11QSvgHandler6deviceEv@@Qt_6_PRIVATE_API
libQt6Svg.so.6:_ZNK11QSvgHandler7inStyleEv@@Qt_6_PRIVATE_API
libQt6Svg.so.6:_ZNK11QSvgHandler7optionsEv@@Qt_6_PRIVATE_API
libQt6Svg.so.6:_ZNK11QSvgHandler8documentEv@@Qt_6_PRIVATE_API
libQt6Svg.so.6:_ZNK11QSvgHandler8selectorEv@@Qt_6_PRIVATE_API
libQt6Svg.so.6:_ZNK11QSvgPattern4typeEv@@Qt_6_PRIVATE_API
libQt6Svg.so.6:_ZNK11QSvgPolygon10fastBoundsEP8QPainterR15QSvgExtraStates@@Qt_6_PRIVATE_API
libQt6Svg.so.6:_ZNK11QSvgPolygon18separateFillStrokeEv@@Qt_6_PRIVATE_API
libQt6Svg.so.6:_ZNK11QSvgPolygon4typeEv@@Qt_6_PRIVATE_API
libQt6Svg.so.6:_ZNK11QSvgPolygon6boundsEP8QPainterR15QSvgExtraStates@@Qt_6_PRIVATE_API
libQt6Svg.so.6:_ZNK12QSvgFeOffset4typeEv@@Qt_6_PRIVATE_API
libQt6Svg.so.6:_ZNK12QSvgFeOffset5applyEP8QSvgNodeRK4QMapI7QString6QImageEP8QPainterRK6QRectFSC_N5QtSvg9UnitTypesESE_@@Qt_6_PRIVATE_API
libQt6Svg.so.6:_ZNK12QSvgPolyline10fastBoundsEP8QPainterR15QSvgExtraStates@@Qt_6_PRIVATE_API
libQt6Svg.so.6:_ZNK12QSvgPolyline18separateFillStrokeEv@@Qt_6_PRIVATE_API
libQt6Svg.so.6:_ZNK12QSvgPolyline4typeEv@@Qt_6_PRIVATE_API
libQt6Svg.so.6:_ZNK12QSvgPolyline6boundsEP8QPainterR15QSvgExtraStates@@Qt_6_PRIVATE_API
libQt6Svg.so.6:_ZNK12QSvgRenderer10metaObjectEv@@Qt_6
libQt6Svg.so.6:_ZNK12QSvgRenderer11defaultSizeEv@@Qt_6
libQt6Svg.so.6:_ZNK12QSvgRenderer12currentFrameEv@@Qt_6
libQt6Svg.so.6:_ZNK12QSvgRenderer13elementExistsERK7QString@@Qt_6
libQt6Svg.so.6:_ZNK12QSvgRenderer15aspectRatioModeEv@@Qt_6
libQt6Svg.so.6:_ZNK12QSvgRenderer15boundsOnElementERK7QString@@Qt_6
libQt6Svg.so.6:_ZNK12QSvgRenderer15framesPerSecondEv@@Qt_6
libQt6Svg.so.6:_ZNK12QSvgRenderer17animationDurationEv@@Qt_6
libQt6Svg.so.6:_ZNK12QSvgRenderer18isAnimationEnabledEv@@Qt_6
libQt6Svg.so.6:_ZNK12QSvgRenderer19transformForElementERK7QString@@Qt_6
libQt6Svg.so.6:_ZNK12QSvgRenderer7isValidEv@@Qt_6
libQt6Svg.so.6:_ZNK12QSvgRenderer7optionsEv@@Qt_6
libQt6Svg.so.6:_ZNK12QSvgRenderer7viewBoxEv@@Qt_6
libQt6Svg.so.6:_ZNK12QSvgRenderer8animatedEv@@Qt_6
libQt6Svg.so.6:_ZNK12QSvgRenderer8viewBoxFEv@@Qt_6
libQt6Svg.so.6:_ZNK13QSvgAnimation4typeEv@@Qt_6_PRIVATE_API
libQt6Svg.so.6:_ZNK13QSvgFillStyle4typeEv@@Qt_6_PRIVATE_API
libQt6Svg.so.6:_ZNK13QSvgFontStyle4typeEv@@Qt_6_PRIVATE_API
libQt6Svg.so.6:_ZNK13QSvgGenerator10resolutionEv@@Qt_6
libQt6Svg.so.6:_ZNK13QSvgGenerator10svgVersionEv@@Qt_6
libQt6Svg.so.6:_ZNK13QSvgGenerator11descriptionEv@@Qt_6
libQt6Svg.so.6:_ZNK13QSvgGenerator11paintEngineEv@@Qt_6
libQt6Svg.so.6:_ZNK13QSvgGenerator12outputDeviceEv@@Qt_6
libQt6Svg.so.6:_ZNK13QSvgGenerator4sizeEv@@Qt_6
libQt6Svg.so.6:_ZNK13QSvgGenerator5titleEv@@Qt_6
libQt6Svg.so.6:_ZNK13QSvgGenerator6metricEN12QPaintDevice17PaintDeviceMetricE@@Qt_6
libQt6Svg.so.6:_ZNK13QSvgGenerator7viewBoxEv@@Qt_6
libQt6Svg.so.6:_ZNK13QSvgGenerator8fileNameEv@@Qt_6
libQt6Svg.so.6:_ZNK13QSvgGenerator8viewBoxFEv@@Qt_6
libQt6Svg.so.6:_ZNK14QSvgSymbolLike29setPainterToRectAndAdjustmentEP8QPainter@@Qt_6_PRIVATE_API
libQt6Svg.so.6:_ZNK15QSvgCompOpStyle4typeEv@@Qt_6_PRIVATE_API
libQt6Svg.so.6:_ZNK15QSvgFeComposite19requiresSourceAlphaEv@@Qt_6_PRIVATE_API
libQt6Svg.so.6:_ZNK15QSvgFeComposite4typeEv@@Qt_6_PRIVATE_API
libQt6Svg.so.6:_ZNK15QSvgFeComposite5applyEP8QSvgNodeRK4QMapI7QString6QImageEP8QPainterRK6QRectFSC_N5QtSvg9UnitTypesESE_@@Qt_6_PRIVATE_API
libQt6Svg.so.6:_ZNK15QSvgFeMergeNode4typeEv@@Qt_6_PRIVATE_API
libQt6Svg.so.6:_ZNK15QSvgFeMergeNode5applyEP8QSvgNodeRK4QMapI7QString6QImageEP8QPainterRK6QRectFSC_N5QtSvg9UnitTypesESE_@@Qt_6_PRIVATE_API
libQt6Svg.so.6:_ZNK15QSvgStrokeStyle4typeEv@@Qt_6_PRIVATE_API
libQt6Svg.so.6:_ZNK16QSvgAnimateColor4typeEv@@Qt_6_PRIVATE_API
libQt6Svg.so.6:_ZNK16QSvgOpacityStyle4typeEv@@Qt_6_PRIVATE_API
libQt6Svg.so.6:_ZNK16QSvgPatternStyle4typeEv@@Qt_6_PRIVATE_API
libQt6Svg.so.6:_ZNK16QSvgQualityStyle4typeEv@@Qt_6_PRIVATE_API
libQt6Svg.so.6:_ZNK16QSvgTinyDocument10namedStyleERK7QString@@Qt_6_PRIVATE_API
libQt6Svg.so.6:_ZNK16QSvgTinyDocument12currentFrameEv@@Qt_6_PRIVATE_API
libQt6Svg.so.6:_ZNK16QSvgTinyDocument13elementExistsERK7QString@@Qt_6_PRIVATE_API
libQt6Svg.so.6:_ZNK16QSvgTinyDocument15boundsOnElementERK7QString@@Qt_6_PRIVATE_API
libQt6Svg.so.6:_ZNK16QSvgTinyDocument19transformForElementERK7QString@@Qt_6_PRIVATE_API
libQt6Svg.so.6:_ZNK16QSvgTinyDocument4typeEv@@Qt_6_PRIVATE_API
libQt6Svg.so.6:_ZNK16QSvgTinyDocument7optionsEv@@Qt_6_PRIVATE_API
libQt6Svg.so.6:_ZNK16QSvgTinyDocument7svgFontERK7QString@@Qt_6_PRIVATE_API
libQt6Svg.so.6:_ZNK16QSvgTinyDocument8animatedEv@@Qt_6_PRIVATE_API
libQt6Svg.so.6:_ZNK16QSvgTinyDocument9namedNodeERK7QString@@Qt_6_PRIVATE_API
libQt6Svg.so.6:_ZNK17QSvgFeColorMatrix4typeEv@@Qt_6_PRIVATE_API
libQt6Svg.so.6:_ZNK17QSvgFeColorMatrix5applyEP8QSvgNodeRK4QMapI7QString6QImageEP8QPainterRK6QRectFSC_N5QtSvg9UnitTypesESE_@@Qt_6_PRIVATE_API
libQt6Svg.so.6:_ZNK17QSvgFeUnsupported4typeEv@@Qt_6_PRIVATE_API
libQt6Svg.so.6:_ZNK17QSvgFeUnsupported5applyEP8QSvgNodeRK4QMapI7QString6QImageEP8QPainterRK6QRectFSC_N5QtSvg9UnitTypesESE_@@Qt_6_PRIVATE_API
libQt6Svg.so.6:_ZNK17QSvgGradientStyle4typeEv@@Qt_6_PRIVATE_API
libQt6Svg.so.6:_ZNK17QSvgStructureNode19previousSiblingNodeEP8QSvgNode@@Qt_6_PRIVATE_API
libQt6Svg.so.6:_ZNK17QSvgStructureNode6boundsEP8QPainterR15QSvgExtraStates@@Qt_6_PRIVATE_API
libQt6Svg.so.6:_ZNK17QSvgStructureNode9scopeNodeERK7QString@@Qt_6_PRIVATE_API
libQt6Svg.so.6:_ZNK18QSvgFeGaussianBlur4typeEv@@Qt_6_PRIVATE_API
libQt6Svg.so.6:_ZNK18QSvgFeGaussianBlur5applyEP8QSvgNodeRK4QMapI7QString6QImageEP8QPainterRK6QRectFSC_N5QtSvg9UnitTypesESE_@@Qt_6_PRIVATE_API
libQt6Svg.so.6:_ZNK18QSvgTransformStyle4typeEv@@Qt_6_PRIVATE_API
libQt6Svg.so.6:_ZNK19QSvgFilterContainer11applyFilterEP8QSvgNodeRK6QImageP8QPainter6QRectF@@Qt_6_PRIVATE_API
libQt6Svg.so.6:_ZNK19QSvgFilterContainer4typeEv@@Qt_6_PRIVATE_API
libQt6Svg.so.6:_ZNK19QSvgFilterContainer9supportedEv@@Qt_6_PRIVATE_API
libQt6Svg.so.6:_ZNK19QSvgSolidColorStyle4typeEv@@Qt_6_PRIVATE_API
libQt6Svg.so.6:_ZNK20QSvgAnimateTransform4typeEv@@Qt_6_PRIVATE_API
libQt6Svg.so.6:_ZNK21QSvgFeFilterPrimitive19requiresSourceAlphaEv@@Qt_6_PRIVATE_API
libQt6Svg.so.6:_ZNK21QSvgFeFilterPrimitive22localFilterBoundingBoxEP8QSvgNodeRK6QRectFS4_N5QtSvg9UnitTypesES6_@@Qt_6_PRIVATE_API
libQt6Svg.so.6:_ZNK21QSvgFeFilterPrimitive23clipToTransformedBoundsEP6QImageP8QPainterRK6QRectF@@Qt_6_PRIVATE_API
libQt6Svg.so.6:_ZNK21QSvgFeFilterPrimitive23globalFilterBoundingBoxEP8QSvgNodeP8QPainterRK6QRectFS6_N5QtSvg9UnitTypesES8_@@Qt_6_PRIVATE_API
libQt6Svg.so.6:_ZNK21QSvgViewportFillStyle4typeEv@@Qt_6_PRIVATE_API
libQt6Svg.so.6:_ZNK5QSvgG14shouldDrawNodeEP8QPainterR15QSvgExtraStates@@Qt_6_PRIVATE_API
libQt6Svg.so.6:_ZNK5QSvgG4typeEv@@Qt_6_PRIVATE_API
libQt6Svg.so.6:_ZNK8QSvgDefs14shouldDrawNodeEP8QPainterR15QSvgExtraStates@@Qt_6_PRIVATE_API
libQt6Svg.so.6:_ZNK8QSvgDefs4typeEv@@Qt_6_PRIVATE_API
libQt6Svg.so.6:_ZNK8QSvgFont10familyNameEv@@Qt_6_PRIVATE_API
libQt6Svg.so.6:_ZNK8QSvgFont4drawEP8QPainterRK7QPointFRK7QStringd6QFlagsIN2Qt13AlignmentFlagEE@@Qt_6_PRIVATE_API
libQt6Svg.so.6:_ZNK8QSvgLine10fastBoundsEP8QPainterR15QSvgExtraStates@@Qt_6_PRIVATE_API
libQt6Svg.so.6:_ZNK8QSvgLine4typeEv@@Qt_6_PRIVATE_API
libQt6Svg.so.6:_ZNK8QSvgLine6boundsEP8QPainterR15QSvgExtraStates@@Qt_6_PRIVATE_API
libQt6Svg.so.6:_ZNK8QSvgMask10createMaskEP8QPainterR15QSvgExtraStatesP8QSvgNodeP6QRectF@@Qt_6_PRIVATE_API
libQt6Svg.so.6:_ZNK8QSvgMask10createMaskEP8QPainterR15QSvgExtraStatesRK6QRectFPS4_@@Qt_6_PRIVATE_API
libQt6Svg.so.6:_ZNK8QSvgMask4typeEv@@Qt_6_PRIVATE_API
libQt6Svg.so.6:_ZNK8QSvgNode10applyStyleEP8QPainterR15QSvgExtraStates@@Qt_6_PRIVATE_API
libQt6Svg.so.6:_ZNK8QSvgNode10fastBoundsEP8QPainterR15QSvgExtraStates@@Qt_6_PRIVATE_API
libQt6Svg.so.6:_ZNK8QSvgNode11displayModeEv@@Qt_6_PRIVATE_API
libQt6Svg.so.6:_ZNK8QSvgNode11markerEndIdEv@@Qt_6_PRIVATE_API
libQt6Svg.so.6:_ZNK8QSvgNode11markerMidIdEv@@Qt_6_PRIVATE_API
libQt6Svg.so.6:_ZNK8QSvgNode11revertStyleEP8QPainterR15QSvgExtraStates@@Qt_6_PRIVATE_API
libQt6Svg.so.6:_ZNK8QSvgNode12hasAnyMarkerEv@@Qt_6_PRIVATE_API
libQt6Svg.so.6:_ZNK8QSvgNode12hasMarkerEndEv@@Qt_6_PRIVATE_API
libQt6Svg.so.6:_ZNK8QSvgNode12hasMarkerMidEv@@Qt_6_PRIVATE_API
libQt6Svg.so.6:_ZNK8QSvgNode13markerStartIdEv@@Qt_6_PRIVATE_API
libQt6Svg.so.6:_ZNK8QSvgNode13requiredFontsEv@@Qt_6_PRIVATE_API
libQt6Svg.so.6:_ZNK8QSvgNode13stylePropertyEN17QSvgStyleProperty4TypeE@@Qt_6_PRIVATE_API
libQt6Svg.so.6:_ZNK8QSvgNode13stylePropertyERK7QString@@Qt_6_PRIVATE_API
libQt6Svg.so.6:_ZNK8QSvgNode14hasMarkerStartEv@@Qt_6_PRIVATE_API
libQt6Svg.so.6:_ZNK8QSvgNode14isDescendantOfEPKS_@@Qt_6_PRIVATE_API
libQt6Svg.so.6:_ZNK8QSvgNode14shouldDrawNodeEP8QPainterR15QSvgExtraStates@@Qt_6_PRIVATE_API
libQt6Svg.so.6:_ZNK8QSvgNode15requiredFormatsEv@@Qt_6_PRIVATE_API
libQt6Svg.so.6:_ZNK8QSvgNode16requiredFeaturesEv@@Qt_6_PRIVATE_API
libQt6Svg.so.6:_ZNK8QSvgNode17applyMaskToBufferEP6QImageS0_@@Qt_6_PRIVATE_API
libQt6Svg.so.6:_ZNK8QSvgNode17requiredLanguagesEv@@Qt_6_PRIVATE_API
libQt6Svg.so.6:_ZNK8QSvgNode17transformedBoundsEP8QPainterR15QSvgExtraStates@@Qt_6_PRIVATE_API
libQt6Svg.so.6:_ZNK8QSvgNode17transformedBoundsEv@@Qt_6_PRIVATE_API
libQt6Svg.so.6:_ZNK8QSvgNode18requiredExtensionsEv@@Qt_6_PRIVATE_API
libQt6Svg.so.6:_ZNK8QSvgNode19applyBufferToCanvasEP8QPainter6QImage@@Qt_6_PRIVATE_API
libQt6Svg.so.6:_ZNK8QSvgNode19applyStyleRecursiveEP8QPainterR15QSvgExtraStates@@Qt_6_PRIVATE_API
libQt6Svg.so.6:_ZNK8QSvgNode6boundsEP8QPainterR15QSvgExtraStates@@Qt_6_PRIVATE_API
libQt6Svg.so.6:_ZNK8QSvgNode6maskIdEv@@Qt_6_PRIVATE_API
libQt6Svg.so.6:_ZNK8QSvgNode7hasMaskEv@@Qt_6_PRIVATE_API
libQt6Svg.so.6:_ZNK8QSvgNode8documentEv@@Qt_6_PRIVATE_API
libQt6Svg.so.6:_ZNK8QSvgNode8filterIdEv@@Qt_6_PRIVATE_API
libQt6Svg.so.6:_ZNK8QSvgNode8typeNameEv@@Qt_6_PRIVATE_API
libQt6Svg.so.6:_ZNK8QSvgNode9hasFilterEv@@Qt_6_PRIVATE_API
libQt6Svg.so.6:_ZNK8QSvgPath10fastBoundsEP8QPainterR15QSvgExtraStates@@Qt_6_PRIVATE_API
libQt6Svg.so.6:_ZNK8QSvgPath18separateFillStrokeEv@@Qt_6_PRIVATE_API
libQt6Svg.so.6:_ZNK8QSvgPath4typeEv@@Qt_6_PRIVATE_API
libQt6Svg.so.6:_ZNK8QSvgPath6boundsEP8QPainterR15QSvgExtraStates@@Qt_6_PRIVATE_API
libQt6Svg.so.6:_ZNK8QSvgRect10fastBoundsEP8QPainterR15QSvgExtraStates@@Qt_6_PRIVATE_API
libQt6Svg.so.6:_ZNK8QSvgRect18separateFillStrokeEv@@Qt_6_PRIVATE_API
libQt6Svg.so.6:_ZNK8QSvgRect4typeEv@@Qt_6_PRIVATE_API
libQt6Svg.so.6:_ZNK8QSvgRect6boundsEP8QPainterR15QSvgExtraStates@@Qt_6_PRIVATE_API
libQt6Svg.so.6:_ZNK8QSvgText10fastBoundsEP8QPainterR15QSvgExtraStates@@Qt_6_PRIVATE_API
libQt6Svg.so.6:_ZNK8QSvgText11draw_helperEP8QPainterR15QSvgExtraStatesP6QRectF@@Qt_6_PRIVATE_API
libQt6Svg.so.6:_ZNK8QSvgText14shouldDrawNodeEP8QPainterR15QSvgExtraStates@@Qt_6_PRIVATE_API
libQt6Svg.so.6:_ZNK8QSvgText4typeEv@@Qt_6_PRIVATE_API
libQt6Svg.so.6:_ZNK8QSvgText6boundsEP8QPainterR15QSvgExtraStates@@Qt_6_PRIVATE_API
libQt6Svg.so.6:_ZNK9QSvgImage4typeEv@@Qt_6_PRIVATE_API
libQt6Svg.so.6:_ZNK9QSvgImage6boundsEP8QPainterR15QSvgExtraStates@@Qt_6_PRIVATE_API
libQt6Svg.so.6:_Zls6QDebugRK16QSvgTinyDocument@@Qt_6_PRIVATE_API
libQt6SvgWidgets.so.6:NonQt
libQt6SvgWidgets.so.6:Qt_6
libQt6SvgWidgets.so.6:Qt_6_PRIVATE_API
libQt6SvgWidgets.so.6:_ZN10QSvgWidget10paintEventEP11QPaintEvent@@Qt_6
libQt6SvgWidgets.so.6:_ZN10QSvgWidget10setOptionsE6QFlagsIN5QtSvg6OptionEE@@Qt_6
libQt6SvgWidgets.so.6:_ZN10QSvgWidget11qt_metacallEN11QMetaObject4CallEiPPv@@Qt_6
libQt6SvgWidgets.so.6:_ZN10QSvgWidget11qt_metacastEPKc@@Qt_6
libQt6SvgWidgets.so.6:_ZN10QSvgWidget4loadERK10QByteArray@@Qt_6
libQt6SvgWidgets.so.6:_ZN10QSvgWidget4loadERK7QString@@Qt_6
libQt6SvgWidgets.so.6:_ZN10QSvgWidgetC1EP7QWidget@@Qt_6
libQt6SvgWidgets.so.6:_ZN10QSvgWidgetC1ERK7QStringP7QWidget@@Qt_6
libQt6SvgWidgets.so.6:_ZN10QSvgWidgetC2EP7QWidget@@Qt_6
libQt6SvgWidgets.so.6:_ZN10QSvgWidgetC2ERK7QStringP7QWidget@@Qt_6
libQt6SvgWidgets.so.6:_ZN10QSvgWidgetD0Ev@@Qt_6
libQt6SvgWidgets.so.6:_ZN10QSvgWidgetD1Ev@@Qt_6
libQt6SvgWidgets.so.6:_ZN10QSvgWidgetD2Ev@@Qt_6
libQt6SvgWidgets.so.6:_ZN16QGraphicsSvgItem11qt_metacallEN11QMetaObject4CallEiPPv@@Qt_6
libQt6SvgWidgets.so.6:_ZN16QGraphicsSvgItem11qt_metacastEPKc@@Qt_6
libQt6SvgWidgets.so.6:_ZN16QGraphicsSvgItem12setElementIdERK7QString@@Qt_6
libQt6SvgWidgets.so.6:_ZN16QGraphicsSvgItem17setCachingEnabledEb@@Qt_6
libQt6SvgWidgets.so.6:_ZN16QGraphicsSvgItem17setSharedRendererEP12QSvgRenderer@@Qt_6
libQt6SvgWidgets.so.6:_ZN16QGraphicsSvgItem19setMaximumCacheSizeERK5QSize@@Qt_6
libQt6SvgWidgets.so.6:_ZN16QGraphicsSvgItem5paintEP8QPainterPK24QStyleOptionGraphicsItemP7QWidget@@Qt_6
libQt6SvgWidgets.so.6:_ZN16QGraphicsSvgItemC1EP13QGraphicsItem@@Qt_6
libQt6SvgWidgets.so.6:_ZN16QGraphicsSvgItemC1ERK7QStringP13QGraphicsItem@@Qt_6
libQt6SvgWidgets.so.6:_ZN16QGraphicsSvgItemC2EP13QGraphicsItem@@Qt_6
libQt6SvgWidgets.so.6:_ZN16QGraphicsSvgItemC2ERK7QStringP13QGraphicsItem@@Qt_6
libQt6SvgWidgets.so.6:_ZNK10QSvgWidget10metaObjectEv@@Qt_6
libQt6SvgWidgets.so.6:_ZNK10QSvgWidget7optionsEv@@Qt_6
libQt6SvgWidgets.so.6:_ZNK10QSvgWidget8rendererEv@@Qt_6
libQt6SvgWidgets.so.6:_ZNK10QSvgWidget8sizeHintEv@@Qt_6
libQt6SvgWidgets.so.6:_ZNK16QGraphicsSvgItem10metaObjectEv@@Qt_6
libQt6SvgWidgets.so.6:_ZNK16QGraphicsSvgItem12boundingRectEv@@Qt_6
libQt6SvgWidgets.so.6:_ZNK16QGraphicsSvgItem16isCachingEnabledEv@@Qt_6
libQt6SvgWidgets.so.6:_ZNK16QGraphicsSvgItem16maximumCacheSizeEv@@Qt_6
libQt6SvgWidgets.so.6:_ZNK16QGraphicsSvgItem4typeEv@@Qt_6
libQt6SvgWidgets.so.6:_ZNK16QGraphicsSvgItem8rendererEv@@Qt_6
libQt6SvgWidgets.so.6:_ZNK16QGraphicsSvgItem9elementIdEv@@Qt_6
libQt6SvgWidgets.so.6:_ZThn16_N10QSvgWidgetD0Ev@@Qt_6
libQt6SvgWidgets.so.6:_ZThn16_N10QSvgWidgetD1Ev@@Qt_6
libQt6SvgWidgets.so.6:_ZThn16_N16QGraphicsSvgItem5paintEP8QPainterPK24QStyleOptionGraphicsItemP7QWidget@@Qt_6
libQt6SvgWidgets.so.6:_ZThn16_NK16QGraphicsSvgItem12boundingRectEv@@Qt_6
libQt6SvgWidgets.so.6:_ZThn16_NK16QGraphicsSvgItem4typeEv@@Qt_6
